; Function Attrs: mustprogress uwtable
define hidden void @_ZN4cvc58internal6theory4bags10TheoryBags10finishInitEv(ptr noundef nonnull align 8 dereferenceable(2192) %this) unnamed_addr #3 align 2 {
entry:
  %d_valuation = getelementptr inbounds i8, ptr %this, i64 152
  tail call void @_ZN4cvc58internal6theory9Valuation18setUnevaluatedKindENS0_4kind6Kind_tE(ptr noundef nonnull align 8 dereferenceable(8) %d_valuation, i32 noundef 11)
  %d_equalityEngine = getelementptr inbounds i8, ptr %this, i64 160
  %0 = load ptr, ptr %d_equalityEngine, align 8
  tail call void @_ZN4cvc58internal6theory2eq14EqualityEngine15addFunctionKindENS0_4kind6Kind_tEbb(ptr noundef nonnull align 8 dereferenceable(1784) %0, i32 noundef 275, i1 noundef zeroext false, i1 noundef zeroext false)
  %1 = load ptr, ptr %d_equalityEngine, align 8
  tail call void @_ZN4cvc58internal6theory2eq14EqualityEngine15addFunctionKindENS0_4kind6Kind_tEbb(ptr noundef nonnull align 8 dereferenceable(1784) %1, i32 noundef 276, i1 noundef zeroext false, i1 noundef zeroext false)
  %2 = load ptr, ptr %d_equalityEngine, align 8
  tail call void @_ZN4cvc58internal6theory2eq14EqualityEngine15addFunctionKindENS0_4kind6Kind_tEbb(ptr noundef nonnull align 8 dereferenceable(1784) %2, i32 noundef 277, i1 noundef zeroext false, i1 noundef zeroext false)
  %3 = load ptr, ptr %d_equalityEngine, align 8
  tail call void @_ZN4cvc58internal6theory2eq14EqualityEngine15addFunctionKindENS0_4kind6Kind_tEbb(ptr noundef nonnull align 8 dereferenceable(1784) %3, i32 noundef 278, i1 noundef zeroext false, i1 noundef zeroext false)
  %4 = load ptr, ptr %d_equalityEngine, align 8
  tail call void @_ZN4cvc58internal6theory2eq14EqualityEngine15addFunctionKindENS0_4kind6Kind_tEbb(ptr noundef nonnull align 8 dereferenceable(1784) %4, i32 noundef 279, i1 noundef zeroext false, i1 noundef zeroext false)
  %5 = load ptr, ptr %d_equalityEngine, align 8
  tail call void @_ZN4cvc58internal6theory2eq14EqualityEngine15addFunctionKindENS0_4kind6Kind_tEbb(ptr noundef nonnull align 8 dereferenceable(1784) %5, i32 noundef 281, i1 noundef zeroext false, i1 noundef zeroext false)
  %6 = load ptr, ptr %d_equalityEngine, align 8
  tail call void @_ZN4cvc58internal6theory2eq14EqualityEngine15addFunctionKindENS0_4kind6Kind_tEbb(ptr noundef nonnull align 8 dereferenceable(1784) %6, i32 noundef 283, i1 noundef zeroext false, i1 noundef zeroext false)
  %7 = load ptr, ptr %d_equalityEngine, align 8
  tail call void @_ZN4cvc58internal6theory2eq14EqualityEngine15addFunctionKindENS0_4kind6Kind_tEbb(ptr noundef nonnull align 8 dereferenceable(1784) %7, i32 noundef 284, i1 noundef zeroext false, i1 noundef zeroext false)
  %8 = load ptr, ptr %d_equalityEngine, align 8
  tail call void @_ZN4cvc58internal6theory2eq14EqualityEngine15addFunctionKindENS0_4kind6Kind_tEbb(ptr noundef nonnull align 8 dereferenceable(1784) %8, i32 noundef 286, i1 noundef zeroext false, i1 noundef zeroext false)
  %9 = load ptr, ptr %d_equalityEngine, align 8
  tail call void @_ZN4cvc58internal6theory2eq14EqualityEngine15addFunctionKindENS0_4kind6Kind_tEbb(ptr noundef nonnull align 8 dereferenceable(1784) %9, i32 noundef 287, i1 noundef zeroext false, i1 noundef zeroext false)
  %10 = load ptr, ptr %d_equalityEngine, align 8
  tail call void @_ZN4cvc58internal6theory2eq14EqualityEngine15addFunctionKindENS0_4kind6Kind_tEbb(ptr noundef nonnull align 8 dereferenceable(1784) %10, i32 noundef 288, i1 noundef zeroext false, i1 noundef zeroext false)
  %11 = load ptr, ptr %d_equalityEngine, align 8
  tail call void @_ZN4cvc58internal6theory2eq14EqualityEngine15addFunctionKindENS0_4kind6Kind_tEbb(ptr noundef nonnull align 8 dereferenceable(1784) %11, i32 noundef 293, i1 noundef zeroext false, i1 noundef zeroext false)
  %12 = load ptr, ptr %d_equalityEngine, align 8
  tail call void @_ZN4cvc58internal6theory2eq14EqualityEngine15addFunctionKindENS0_4kind6Kind_tEbb(ptr noundef nonnull align 8 dereferenceable(1784) %12, i32 noundef 294, i1 noundef zeroext false, i1 noundef zeroext false)
  %13 = load ptr, ptr %d_equalityEngine, align 8
  tail call void @_ZN4cvc58internal6theory2eq14EqualityEngine15addFunctionKindENS0_4kind6Kind_tEbb(ptr noundef nonnull align 8 dereferenceable(1784) %13, i32 noundef 296, i1 noundef zeroext false, i1 noundef zeroext false)
  %14 = load ptr, ptr %d_equalityEngine, align 8
  tail call void @_ZN4cvc58internal6theory2eq14EqualityEngine15addFunctionKindENS0_4kind6Kind_tEbb(ptr noundef nonnull align 8 dereferenceable(1784) %14, i32 noundef 298, i1 noundef zeroext false, i1 noundef zeroext false)
  %15 = load ptr, ptr %d_equalityEngine, align 8
  tail call void @_ZN4cvc58internal6theory2eq14EqualityEngine15addFunctionKindENS0_4kind6Kind_tEbb(ptr noundef nonnull align 8 dereferenceable(1784) %15, i32 noundef 300, i1 noundef zeroext false, i1 noundef zeroext false)
  %16 = load ptr, ptr %d_equalityEngine, align 8
  tail call void @_ZN4cvc58internal6theory2eq14EqualityEngine15addFunctionKindENS0_4kind6Kind_tEbb(ptr noundef nonnull align 8 dereferenceable(1784) %16, i32 noundef 302, i1 noundef zeroext false, i1 noundef zeroext false)
  ret void
}